target datalayout = "e-m:e-p270:32:32-p271:32:32-p272:64:64-i64:64-i128:128-f80:128-n8:16:32:64-S128"
target triple = "x86_64-pc-linux-gnu"

%struct._object = type { %union.anon, ptr }
%union.anon = type { i64 }
%struct.anon = type { i32, i32 }

@PyExc_AssertionError = external global ptr, align 8
@.str.125 = private unnamed_addr constant [54 x i8] c"Edit cost from '%s' to '%s' returns %zd, expected %zd\00", align 1
@.str.126 = private unnamed_addr constant [83 x i8] c"Edit cost from '%s' to '%s' (threshold %zd) returns %zd, expected greater than %zd\00", align 1
@.str.127 = private unnamed_addr constant [70 x i8] c"Edit cost from '%s' to '%s' (threshold %zd) returns %zd, expected %zd\00", align 1

; Function Attrs: alwaysinline nounwind uwtable
define internal i32 @_Py_IsImmortal(ptr noundef %0) #6 {
  %2 = alloca ptr, align 8
  store ptr %0, ptr %2, align 8, !tbaa !3
  %3 = load ptr, ptr %2, align 8, !tbaa !3
  %4 = getelementptr inbounds nuw %struct._object, ptr %3, i32 0, i32 0
  %5 = getelementptr inbounds nuw %struct.anon, ptr %4, i32 0, i32 0
  %6 = load i32, ptr %5, align 8, !tbaa !34
  %7 = icmp slt i32 %6, 0
  %8 = zext i1 %7 to i32
  ret i32 %8
}

; Function Attrs: alwaysinline nounwind uwtable
define internal void @Py_DECREF(ptr noundef %0) #6 {
  %2 = alloca ptr, align 8
  store ptr %0, ptr %2, align 8, !tbaa !3
  %3 = load ptr, ptr %2, align 8, !tbaa !3
  %4 = call i32 @_Py_IsImmortal(ptr noundef %3)
  %5 = icmp ne i32 %4, 0
  br i1 %5, label %6, label %7

6:                                                ; preds = %1
  br label %16

7:                                                ; preds = %1
  %8 = load ptr, ptr %2, align 8, !tbaa !3
  %9 = getelementptr inbounds nuw %struct._object, ptr %8, i32 0, i32 0
  %10 = getelementptr inbounds nuw %struct.anon, ptr %9, i32 0, i32 0
  %11 = load i32, ptr %10, align 8, !tbaa !34
  %12 = add i32 %11, -1
  store i32 %12, ptr %10, align 8, !tbaa !34
  %13 = icmp eq i32 %12, 0
  br i1 %13, label %14, label %16

14:                                               ; preds = %7
  %15 = load ptr, ptr %2, align 8, !tbaa !3
  call void @_Py_Dealloc(ptr noundef %15)
  br label %16

16:                                               ; preds = %6, %14, %7
  ret void
}

; Function Attrs: inlinehint nounwind uwtable
define internal void @Py_XDECREF(ptr noundef %0) #3 {
  %2 = alloca ptr, align 8
  store ptr %0, ptr %2, align 8, !tbaa !3
  %3 = load ptr, ptr %2, align 8, !tbaa !3
  %4 = icmp ne ptr %3, null
  br i1 %4, label %5, label %7

5:                                                ; preds = %1
  %6 = load ptr, ptr %2, align 8, !tbaa !3
  call void @Py_DECREF(ptr noundef %6)
  br label %7

7:                                                ; preds = %5, %1
  ret void
}

; Function Attrs: nounwind uwtable
define internal i32 @check_edit_cost(ptr noundef %0, ptr noundef %1, i64 noundef %2) #0 {
  %4 = alloca i32, align 4
  %5 = alloca ptr, align 8
  %6 = alloca ptr, align 8
  %7 = alloca i64, align 8
  %8 = alloca i32, align 4
  %9 = alloca ptr, align 8
  %10 = alloca ptr, align 8
  %11 = alloca i64, align 8
  %12 = alloca i64, align 8
  %13 = alloca i64, align 8
  %14 = alloca i32, align 4
  %15 = alloca i64, align 8
  store ptr %0, ptr %5, align 8, !tbaa !46
  store ptr %1, ptr %6, align 8, !tbaa !46
  store i64 %2, ptr %7, align 8, !tbaa !27
  call void @llvm.lifetime.start.p0(i64 4, ptr %8) #10
  store i32 -1, ptr %8, align 4, !tbaa !26
  call void @llvm.lifetime.start.p0(i64 8, ptr %9) #10
  store ptr null, ptr %9, align 8, !tbaa !3
  call void @llvm.lifetime.start.p0(i64 8, ptr %10) #10
  store ptr null, ptr %10, align 8, !tbaa !3
  %16 = load ptr, ptr %5, align 8, !tbaa !46
  %17 = call ptr @PyUnicode_FromString(ptr noundef %16)
  store ptr %17, ptr %9, align 8, !tbaa !3
  %18 = load ptr, ptr %9, align 8, !tbaa !3
  %19 = icmp eq ptr %18, null
  br i1 %19, label %20, label %21

20:                                               ; preds = %3
  br label %88

21:                                               ; preds = %3
  %22 = load ptr, ptr %6, align 8, !tbaa !46
  %23 = call ptr @PyUnicode_FromString(ptr noundef %22)
  store ptr %23, ptr %10, align 8, !tbaa !3
  %24 = load ptr, ptr %10, align 8, !tbaa !3
  %25 = icmp eq ptr %24, null
  br i1 %25, label %26, label %27

26:                                               ; preds = %21
  br label %88

27:                                               ; preds = %21
  %28 = load ptr, ptr %9, align 8, !tbaa !3
  %29 = load ptr, ptr %10, align 8, !tbaa !3
  %30 = call i64 @_Py_UTF8_Edit_Cost(ptr noundef %28, ptr noundef %29, i64 noundef -1)
  store i64 %30, ptr %11, align 8, !tbaa !27
  %31 = load i64, ptr %11, align 8, !tbaa !27
  %32 = load i64, ptr %7, align 8, !tbaa !27
  %33 = icmp ne i64 %31, %32
  br i1 %33, label %34, label %41

34:                                               ; preds = %27
  %35 = load ptr, ptr @PyExc_AssertionError, align 8, !tbaa !3
  %36 = load ptr, ptr %5, align 8, !tbaa !46
  %37 = load ptr, ptr %6, align 8, !tbaa !46
  %38 = load i64, ptr %11, align 8, !tbaa !27
  %39 = load i64, ptr %7, align 8, !tbaa !27
  %40 = call ptr (ptr, ptr, ...) @PyErr_Format(ptr noundef %35, ptr noundef @.str.125, ptr noundef %36, ptr noundef %37, i64 noundef %38, i64 noundef %39)
  br label %88

41:                                               ; preds = %27
  %42 = load i64, ptr %11, align 8, !tbaa !27
  store i64 %42, ptr %12, align 8, !tbaa !27
  br label %43

43:                                               ; preds = %67, %41
  %44 = load i64, ptr %12, align 8, !tbaa !27
  %45 = icmp sgt i64 %44, 0
  br i1 %45, label %46, label %68

46:                                               ; preds = %43
  %47 = load i64, ptr %12, align 8, !tbaa !27
  %48 = sdiv i64 %47, 2
  store i64 %48, ptr %12, align 8, !tbaa !27
  call void @llvm.lifetime.start.p0(i64 8, ptr %13) #10
  %49 = load ptr, ptr %9, align 8, !tbaa !3
  %50 = load ptr, ptr %10, align 8, !tbaa !3
  %51 = load i64, ptr %12, align 8, !tbaa !27
  %52 = call i64 @_Py_UTF8_Edit_Cost(ptr noundef %49, ptr noundef %50, i64 noundef %51)
  store i64 %52, ptr %13, align 8, !tbaa !27
  %53 = load i64, ptr %13, align 8, !tbaa !27
  %54 = load i64, ptr %12, align 8, !tbaa !27
  %55 = icmp sle i64 %53, %54
  br i1 %55, label %56, label %64

56:                                               ; preds = %46
  %57 = load ptr, ptr @PyExc_AssertionError, align 8, !tbaa !3
  %58 = load ptr, ptr %5, align 8, !tbaa !46
  %59 = load ptr, ptr %6, align 8, !tbaa !46
  %60 = load i64, ptr %12, align 8, !tbaa !27
  %61 = load i64, ptr %13, align 8, !tbaa !27
  %62 = load i64, ptr %12, align 8, !tbaa !27
  %63 = call ptr (ptr, ptr, ...) @PyErr_Format(ptr noundef %57, ptr noundef @.str.126, ptr noundef %58, ptr noundef %59, i64 noundef %60, i64 noundef %61, i64 noundef %62)
  store i32 2, ptr %14, align 4
  br label %65

64:                                               ; preds = %46
  store i32 0, ptr %14, align 4
  br label %65

65:                                               ; preds = %56, %64
  call void @llvm.lifetime.end.p0(i64 8, ptr %13) #10
  %66 = load i32, ptr %14, align 4
  switch i32 %66, label %92 [
    i32 0, label %67
    i32 2, label %88
  ]

67:                                               ; preds = %65
  br label %43, !llvm.loop !254

68:                                               ; preds = %43
  %69 = load ptr, ptr %9, align 8, !tbaa !3
  %70 = load ptr, ptr %10, align 8, !tbaa !3
  %71 = load i64, ptr %11, align 8, !tbaa !27
  %72 = mul i64 %71, 2
  %73 = add i64 %72, 1
  %74 = call i64 @_Py_UTF8_Edit_Cost(ptr noundef %69, ptr noundef %70, i64 noundef %73)
  store i64 %74, ptr %15, align 8, !tbaa !27
  %75 = load i64, ptr %15, align 8, !tbaa !27
  %76 = load i64, ptr %11, align 8, !tbaa !27
  %77 = icmp ne i64 %75, %76
  br i1 %77, label %78, label %87

78:                                               ; preds = %68
  %79 = load ptr, ptr @PyExc_AssertionError, align 8, !tbaa !3
  %80 = load ptr, ptr %5, align 8, !tbaa !46
  %81 = load ptr, ptr %6, align 8, !tbaa !46
  %82 = load i64, ptr %11, align 8, !tbaa !27
  %83 = mul i64 %82, 2
  %84 = load i64, ptr %15, align 8, !tbaa !27
  %85 = load i64, ptr %11, align 8, !tbaa !27
  %86 = call ptr (ptr, ptr, ...) @PyErr_Format(ptr noundef %79, ptr noundef @.str.127, ptr noundef %80, ptr noundef %81, i64 noundef %83, i64 noundef %84, i64 noundef %85)
  br label %88

87:                                               ; preds = %68
  store i32 0, ptr %8, align 4, !tbaa !26
  br label %88

88:                                               ; preds = %87, %65, %78, %34, %26, %20
  %89 = load ptr, ptr %9, align 8, !tbaa !3
  call void @Py_XDECREF(ptr noundef %89)
  %90 = load ptr, ptr %10, align 8, !tbaa !3
  call void @Py_XDECREF(ptr noundef %90)
  %91 = load i32, ptr %8, align 4, !tbaa !26
  store i32 %91, ptr %4, align 4
  store i32 1, ptr %14, align 4
  br label %92

92:                                               ; preds = %88, %65
  call void @llvm.lifetime.end.p0(i64 8, ptr %10) #10
  call void @llvm.lifetime.end.p0(i64 8, ptr %9) #10
  call void @llvm.lifetime.end.p0(i64 4, ptr %8) #10
  %93 = load i32, ptr %4, align 4
  ret i32 %93
}