; Function Attrs: nounwind uwtable
define internal fastcc range(i32 -1, 1) i32 @check_edit_cost(ptr noundef %0, ptr noundef %1, i64 noundef range(i64 0, 13) %2) unnamed_addr #0 {
  %4 = tail call ptr @PyUnicode_FromString(ptr noundef %0) #11
  %5 = icmp eq ptr %4, null
  br i1 %5, label %Py_XDECREF.exit56, label %6

6:                                                ; preds = %3
  %7 = tail call ptr @PyUnicode_FromString(ptr noundef %1) #11
  %8 = icmp eq ptr %7, null
  br i1 %8, label %26, label %9

9:                                                ; preds = %6
  %10 = tail call i64 @_Py_UTF8_Edit_Cost(ptr noundef nonnull %4, ptr noundef nonnull %7, i64 noundef -1) #11
  %.not = icmp eq i64 %10, %2
  br i1 %.not, label %.preheader, label %11

11:                                               ; preds = %9
  %12 = load ptr, ptr @PyExc_AssertionError, align 8, !tbaa !9
  %13 = tail call ptr (ptr, ptr, ...) @PyErr_Format(ptr noundef %12, ptr noundef nonnull @.str.125, ptr noundef %0, ptr noundef %1, i64 noundef %10, i64 noundef %2) #11
  br label %26

.preheader:                                       ; preds = %9, %14
  %.041 = phi i64 [ %15, %14 ], [ %2, %9 ]
  %.not72 = icmp eq i64 %.041, 0
  br i1 %.not72, label %19, label %14

14:                                               ; preds = %.preheader
  %15 = lshr i64 %.041, 1
  %16 = tail call i64 @_Py_UTF8_Edit_Cost(ptr noundef nonnull %4, ptr noundef nonnull %7, i64 noundef %15) #11
  %.not52 = icmp sgt i64 %16, %15
  br i1 %.not52, label %.preheader, label %.thread

.thread:                                          ; preds = %14
  %17 = load ptr, ptr @PyExc_AssertionError, align 8, !tbaa !9
  %18 = tail call ptr (ptr, ptr, ...) @PyErr_Format(ptr noundef %17, ptr noundef nonnull @.str.126, ptr noundef %0, ptr noundef %1, i64 noundef %15, i64 noundef %16, i64 noundef %15) #11
  br label %26

19:                                               ; preds = %.preheader
  %20 = shl nuw nsw i64 %2, 1
  %21 = or disjoint i64 %20, 1
  %22 = tail call i64 @_Py_UTF8_Edit_Cost(ptr noundef nonnull %4, ptr noundef nonnull %7, i64 noundef %21) #11
  %.not51 = icmp eq i64 %22, %2
  br i1 %.not51, label %26, label %23

23:                                               ; preds = %19
  %24 = load ptr, ptr @PyExc_AssertionError, align 8, !tbaa !9
  %25 = tail call ptr (ptr, ptr, ...) @PyErr_Format(ptr noundef %24, ptr noundef nonnull @.str.127, ptr noundef %0, ptr noundef %1, i64 noundef %20, i64 noundef %22, i64 noundef %2) #11
  br label %26

26:                                               ; preds = %.thread, %19, %6, %23, %11
  %.040.ph = phi i32 [ -1, %.thread ], [ 0, %19 ], [ -1, %23 ], [ -1, %11 ], [ -1, %6 ]
  %27 = load i32, ptr %4, align 8, !tbaa !10
  %.not.i.i = icmp sgt i32 %27, -1
  br i1 %.not.i.i, label %28, label %Py_XDECREF.exit

28:                                               ; preds = %26
  %29 = add nsw i32 %27, -1
  store i32 %29, ptr %4, align 8, !tbaa !10
  %30 = icmp eq i32 %29, 0
  br i1 %30, label %31, label %Py_XDECREF.exit

31:                                               ; preds = %28
  tail call void @_Py_Dealloc(ptr noundef nonnull %4) #11
  br label %Py_XDECREF.exit

Py_XDECREF.exit:                                  ; preds = %26, %28, %31
  br i1 %8, label %Py_XDECREF.exit56, label %32

32:                                               ; preds = %Py_XDECREF.exit
  %33 = load i32, ptr %7, align 8, !tbaa !10
  %.not.i.i55 = icmp sgt i32 %33, -1
  br i1 %.not.i.i55, label %34, label %Py_XDECREF.exit56

34:                                               ; preds = %32
  %35 = add nsw i32 %33, -1
  store i32 %35, ptr %7, align 8, !tbaa !10
  %36 = icmp eq i32 %35, 0
  br i1 %36, label %37, label %Py_XDECREF.exit56

37:                                               ; preds = %34
  tail call void @_Py_Dealloc(ptr noundef nonnull %7) #11
  br label %Py_XDECREF.exit56

Py_XDECREF.exit56:                                ; preds = %3, %Py_XDECREF.exit, %32, %34, %37
  %.0406569 = phi i32 [ %.040.ph, %Py_XDECREF.exit ], [ %.040.ph, %32 ], [ %.040.ph, %34 ], [ %.040.ph, %37 ], [ -1, %3 ]
  ret i32 %.0406569
}